; Function Attrs: mustprogress uwtable
define void @_ZN7testing7MessageC2Ev(ptr nocapture noundef nonnull align 8 dereferenceable(8) %this) unnamed_addr #3 align 2 personality ptr @__gxx_personality_v0 {
entry:
  %call = tail call noalias noundef nonnull dereferenceable(392) ptr @_Znwm(i64 noundef 392) #50
  invoke void @_ZNSt7__cxx1118basic_stringstreamIcSt11char_traitsIcESaIcEEC1Ev(ptr noundef nonnull align 8 dereferenceable(128) %call)
          to label %invoke.cont unwind label %lpad

invoke.cont:                                      ; preds = %entry
  store ptr %call, ptr %this, align 8
  %add.ptr = getelementptr inbounds i8, ptr %call, i64 16
  %call10 = invoke noundef nonnull align 8 dereferenceable(8) ptr @_ZStlsIcSt11char_traitsIcEERSt13basic_ostreamIT_T0_ES6_St13_Setprecision(ptr noundef nonnull align 8 dereferenceable(8) %add.ptr, i32 17)
          to label %invoke.cont9 unwind label %lpad3

invoke.cont9:                                     ; preds = %invoke.cont
  ret void

lpad:                                             ; preds = %entry
  %0 = landingpad { ptr, i32 }
          cleanup
  tail call void @_ZdlPv(ptr noundef nonnull %call) #51
  br label %eh.resume

lpad3:                                            ; preds = %invoke.cont
  %1 = landingpad { ptr, i32 }
          cleanup
  %2 = load ptr, ptr %this, align 8
  %cmp.not.i.i = icmp eq ptr %2, null
  br i1 %cmp.not.i.i, label %eh.resume, label %if.end.i.i

if.end.i.i:                                       ; preds = %lpad3
  %vtable.i.i = load ptr, ptr %2, align 8
  %vfn.i.i = getelementptr inbounds i8, ptr %vtable.i.i, i64 8
  %3 = load ptr, ptr %vfn.i.i, align 8
  tail call void %3(ptr noundef nonnull align 8 dereferenceable(128) %2) #47
  store ptr null, ptr %this, align 8
  br label %eh.resume

eh.resume:                                        ; preds = %if.end.i.i, %lpad3, %lpad
  %.pn = phi { ptr, i32 } [ %0, %lpad ], [ %1, %lpad3 ], [ %1, %if.end.i.i ]
  resume { ptr, i32 } %.pn
}